; Function Attrs: mustprogress uwtable
define hidden noundef range(i32 4, 6) i32 @_ZN15bv2int_rewriter9mk_uminusEP4exprR7obj_refIS0_11ast_managerE(ptr noundef nonnull align 8 dereferenceable(56) %0, ptr noundef %1, ptr noundef nonnull align 8 captures(none) dereferenceable(16) %2) local_unnamed_addr #3 align 2 personality ptr @__gxx_personality_v0 {
  %4 = alloca %class.obj_ref, align 8
  %5 = alloca %class.obj_ref, align 8
  call void @llvm.lifetime.start.p0(i64 16, ptr nonnull %4) #23
  %6 = load ptr, ptr %0, align 8, !tbaa !105
  store ptr null, ptr %4, align 8, !tbaa !110
  %7 = getelementptr inbounds nuw i8, ptr %4, i64 8
  store ptr %6, ptr %7, align 8, !tbaa !101
  call void @llvm.lifetime.start.p0(i64 16, ptr nonnull %5) #23
  store ptr null, ptr %5, align 8, !tbaa !110
  %8 = getelementptr inbounds nuw i8, ptr %5, i64 8
  store ptr %6, ptr %8, align 8, !tbaa !101
  %9 = invoke noundef zeroext i1 @_ZN15bv2int_rewriter14is_bv2int_diffEP4exprR7obj_refIS0_11ast_managerES5_(ptr noundef nonnull align 8 dereferenceable(56) %0, ptr noundef %1, ptr noundef nonnull align 8 dereferenceable(16) %4, ptr noundef nonnull align 8 dereferenceable(16) %5)
          to label %10 unwind label %35

10:                                               ; preds = %3
  br i1 %9, label %11, label %37

11:                                               ; preds = %10
  %12 = getelementptr inbounds nuw i8, ptr %0, i64 40
  %13 = getelementptr inbounds nuw i8, ptr %0, i64 16
  %14 = load ptr, ptr %5, align 8, !tbaa !110
  %15 = invoke noundef ptr @_ZNK7bv_util9mk_bv2intEP4expr(ptr noundef nonnull align 8 dereferenceable(24) %13, ptr noundef %14)
          to label %16 unwind label %35

16:                                               ; preds = %11
  %17 = load ptr, ptr %4, align 8, !tbaa !110
  %18 = invoke noundef ptr @_ZNK7bv_util9mk_bv2intEP4expr(ptr noundef nonnull align 8 dereferenceable(24) %13, ptr noundef %17)
          to label %19 unwind label %35

19:                                               ; preds = %16
  %20 = load ptr, ptr %12, align 8, !tbaa !109
  %21 = invoke noundef ptr @_ZN11ast_manager6mk_appEiiP4exprS1_(ptr noundef nonnull align 8 dereferenceable(976) %20, i32 noundef 5, i32 noundef 7, ptr noundef %15, ptr noundef %18)
          to label %_ZNK10arith_util6mk_subEP4exprS1_.exit unwind label %35

_ZNK10arith_util6mk_subEP4exprS1_.exit:           ; preds = %19
  %.not.i = icmp eq ptr %21, null
  br i1 %.not.i, label %25, label %_ZN11ast_manager7inc_refEP3ast.exit.i

_ZN11ast_manager7inc_refEP3ast.exit.i:            ; preds = %_ZNK10arith_util6mk_subEP4exprS1_.exit
  %22 = getelementptr inbounds nuw i8, ptr %21, i64 8
  %23 = load i32, ptr %22, align 4, !tbaa !87
  %24 = add i32 %23, 1
  store i32 %24, ptr %22, align 4, !tbaa !87
  br label %25

25:                                               ; preds = %_ZN11ast_manager7inc_refEP3ast.exit.i, %_ZNK10arith_util6mk_subEP4exprS1_.exit
  %26 = load ptr, ptr %2, align 8, !tbaa !110
  %.not.i4.i = icmp eq ptr %26, null
  br i1 %.not.i4.i, label %.sink.split, label %27

27:                                               ; preds = %25
  %28 = getelementptr inbounds nuw i8, ptr %2, i64 8
  %29 = load ptr, ptr %28, align 8, !tbaa !112
  %30 = getelementptr inbounds nuw i8, ptr %26, i64 8
  %31 = load i32, ptr %30, align 4, !tbaa !87
  %32 = add i32 %31, -1
  store i32 %32, ptr %30, align 4, !tbaa !87
  %33 = icmp eq i32 %32, 0
  br i1 %33, label %34, label %.sink.split

34:                                               ; preds = %27
  invoke void @_ZN11ast_manager11delete_nodeEP3ast(ptr noundef nonnull align 8 dereferenceable(976) %29, ptr noundef nonnull %26)
          to label %.sink.split unwind label %35

35:                                               ; preds = %61, %40, %34, %19, %_ZN7bv_util9mk_bv_negEP4expr.exit, %37, %16, %11, %3
  %36 = landingpad { ptr, i32 }
          cleanup
  call void @_ZN7obj_refI4expr11ast_managerED2Ev(ptr noundef nonnull align 8 dereferenceable(16) %5) #23
  call void @llvm.lifetime.end.p0(i64 16, ptr nonnull %5) #23
  call void @_ZN7obj_refI4expr11ast_managerED2Ev(ptr noundef nonnull align 8 dereferenceable(16) %4) #23
  call void @llvm.lifetime.end.p0(i64 16, ptr nonnull %4) #23
  resume { ptr, i32 } %36

37:                                               ; preds = %10
  %38 = invoke noundef zeroext i1 @_ZN15bv2int_rewriter10is_sbv2intEP4exprR7obj_refIS0_11ast_managerE(ptr noundef nonnull align 8 dereferenceable(56) %0, ptr noundef %1, ptr noundef nonnull align 8 dereferenceable(16) %4)
          to label %39 unwind label %35

39:                                               ; preds = %37
  br i1 %38, label %40, label %62

40:                                               ; preds = %39
  %41 = getelementptr inbounds nuw i8, ptr %0, i64 16
  %42 = load ptr, ptr %4, align 8, !tbaa !110
  %43 = getelementptr inbounds nuw i8, ptr %0, i64 24
  %44 = load ptr, ptr %43, align 8, !tbaa !82
  %45 = load i32, ptr %41, align 8, !tbaa !86
  %46 = invoke noundef ptr @_ZN11ast_manager6mk_appEiiP4expr(ptr noundef nonnull align 8 dereferenceable(976) %44, i32 noundef %45, i32 noundef 3, ptr noundef %42)
          to label %_ZN7bv_util9mk_bv_negEP4expr.exit unwind label %35

_ZN7bv_util9mk_bv_negEP4expr.exit:                ; preds = %40
  %47 = invoke noundef ptr @_ZN15bv2int_rewriter10mk_sbv2intEP4expr(ptr noundef nonnull align 8 dereferenceable(56) %0, ptr noundef %46)
          to label %48 unwind label %35

48:                                               ; preds = %_ZN7bv_util9mk_bv_negEP4expr.exit
  %.not.i8 = icmp eq ptr %47, null
  br i1 %.not.i8, label %52, label %_ZN11ast_manager7inc_refEP3ast.exit.i9

_ZN11ast_manager7inc_refEP3ast.exit.i9:           ; preds = %48
  %49 = getelementptr inbounds nuw i8, ptr %47, i64 8
  %50 = load i32, ptr %49, align 4, !tbaa !87
  %51 = add i32 %50, 1
  store i32 %51, ptr %49, align 4, !tbaa !87
  br label %52

52:                                               ; preds = %_ZN11ast_manager7inc_refEP3ast.exit.i9, %48
  %53 = load ptr, ptr %2, align 8, !tbaa !110
  %.not.i4.i10 = icmp eq ptr %53, null
  br i1 %.not.i4.i10, label %.sink.split, label %54

54:                                               ; preds = %52
  %55 = getelementptr inbounds nuw i8, ptr %2, i64 8
  %56 = load ptr, ptr %55, align 8, !tbaa !112
  %57 = getelementptr inbounds nuw i8, ptr %53, i64 8
  %58 = load i32, ptr %57, align 4, !tbaa !87
  %59 = add i32 %58, -1
  store i32 %59, ptr %57, align 4, !tbaa !87
  %60 = icmp eq i32 %59, 0
  br i1 %60, label %61, label %.sink.split

61:                                               ; preds = %54
  invoke void @_ZN11ast_manager11delete_nodeEP3ast(ptr noundef nonnull align 8 dereferenceable(976) %56, ptr noundef nonnull %53)
          to label %.sink.split unwind label %35

.sink.split:                                      ; preds = %54, %52, %61, %27, %25, %34
  %.sink = phi ptr [ %21, %34 ], [ %21, %25 ], [ %21, %27 ], [ %47, %61 ], [ %47, %52 ], [ %47, %54 ]
  store ptr %.sink, ptr %2, align 8, !tbaa !110
  br label %62

62:                                               ; preds = %.sink.split, %39
  %.0 = phi i32 [ 5, %39 ], [ 4, %.sink.split ]
  %63 = load ptr, ptr %5, align 8, !tbaa !110
  %.not.i.i = icmp eq ptr %63, null
  br i1 %.not.i.i, label %_ZN7obj_refI4expr11ast_managerED2Ev.exit, label %64

64:                                               ; preds = %62
  %65 = load ptr, ptr %8, align 8, !tbaa !112
  %66 = getelementptr inbounds nuw i8, ptr %63, i64 8
  %67 = load i32, ptr %66, align 4, !tbaa !87
  %68 = add i32 %67, -1
  store i32 %68, ptr %66, align 4, !tbaa !87
  %69 = icmp eq i32 %68, 0
  br i1 %69, label %70, label %_ZN7obj_refI4expr11ast_managerED2Ev.exit

70:                                               ; preds = %64
  invoke void @_ZN11ast_manager11delete_nodeEP3ast(ptr noundef nonnull align 8 dereferenceable(976) %65, ptr noundef nonnull %63)
          to label %_ZN7obj_refI4expr11ast_managerED2Ev.exit unwind label %71

71:                                               ; preds = %70
  %72 = landingpad { ptr, i32 }
          catch ptr null
  %73 = extractvalue { ptr, i32 } %72, 0
  call void @__clang_call_terminate(ptr %73) #24
  unreachable

_ZN7obj_refI4expr11ast_managerED2Ev.exit:         ; preds = %62, %64, %70
  call void @llvm.lifetime.end.p0(i64 16, ptr nonnull %5) #23
  %74 = load ptr, ptr %4, align 8, !tbaa !110
  %.not.i.i13 = icmp eq ptr %74, null
  br i1 %.not.i.i13, label %_ZN7obj_refI4expr11ast_managerED2Ev.exit14, label %75

75:                                               ; preds = %_ZN7obj_refI4expr11ast_managerED2Ev.exit
  %76 = load ptr, ptr %7, align 8, !tbaa !112
  %77 = getelementptr inbounds nuw i8, ptr %74, i64 8
  %78 = load i32, ptr %77, align 4, !tbaa !87
  %79 = add i32 %78, -1
  store i32 %79, ptr %77, align 4, !tbaa !87
  %80 = icmp eq i32 %79, 0
  br i1 %80, label %81, label %_ZN7obj_refI4expr11ast_managerED2Ev.exit14

81:                                               ; preds = %75
  invoke void @_ZN11ast_manager11delete_nodeEP3ast(ptr noundef nonnull align 8 dereferenceable(976) %76, ptr noundef nonnull %74)
          to label %_ZN7obj_refI4expr11ast_managerED2Ev.exit14 unwind label %82

82:                                               ; preds = %81
  %83 = landingpad { ptr, i32 }
          catch ptr null
  %84 = extractvalue { ptr, i32 } %83, 0
  call void @__clang_call_terminate(ptr %84) #24
  unreachable

_ZN7obj_refI4expr11ast_managerED2Ev.exit14:       ; preds = %_ZN7obj_refI4expr11ast_managerED2Ev.exit, %75, %81
  call void @llvm.lifetime.end.p0(i64 16, ptr nonnull %4) #23
  ret i32 %.0
}